target datalayout = "e-m:e-p270:32:32-p271:32:32-p272:64:64-i64:64-i128:128-f80:128-n8:16:32:64-S128"
target triple = "x86_64-pc-linux-gnu"

%union.SourceSpan = type { i64 }
%struct.GenContext_ = type { i8, ptr, ptr, ptr, ptr, ptr, ptr, ptr, ptr, ptr, ptr, ptr, ptr, ptr, ptr, ptr, ptr, ptr, ptr, ptr, ptr, ptr, ptr, ptr, ptr, ptr, ptr, ptr, ptr, ptr, ptr, ptr, ptr, %struct.anon.85, i32, i32, %struct.DebugContext, ptr, ptr, ptr, %struct.BEValue, i8, %union.SourceSpan, ptr, ptr, ptr, ptr }
%struct.anon.85 = type { ptr, ptr, ptr }
%struct.DebugContext = type { i16, ptr, ptr, %struct.DebugFile_, ptr, ptr, ptr, ptr }
%struct.DebugFile_ = type { i16, ptr }
%struct.BEValue = type { i8, i32, ptr, ptr, ptr }
%struct.VHeader_ = type { i32, i32, [0 x i8] }
%struct.Type_ = type { i32, ptr, ptr, ptr, %union.anon.86, ptr, ptr, %union.anon.88 }
%union.anon.86 = type { ptr }
%union.anon.88 = type { %struct.TypeFunction }
%struct.TypeFunction = type { ptr, ptr, ptr }
%struct.Decl_ = type { ptr, ptr, %union.SourceSpan, i64, %union.anon, i32, %union.anon.0, i64, ptr, ptr, ptr, %union.anon.1 }
%union.anon = type { ptr }
%union.anon.0 = type { i16 }
%union.anon.1 = type { %struct.FuncDecl }
%struct.FuncDecl = type { i32, [4 x i8], %struct.Signature_, i32, i32, %union.anon.8 }
%struct.Signature_ = type <{ %struct.CalleeAttributes, i16, i8, i32, i32, [4 x i8], ptr }>
%struct.CalleeAttributes = type { i8 }
%union.anon.8 = type { %struct.anon.9 }
%struct.anon.9 = type { i16, %union.anon.10 }
%union.anon.10 = type { ptr }
%struct.anon.2 = type { ptr, ptr, %union.anon.3 }
%union.anon.3 = type { %struct.BitStructDecl }
%struct.BitStructDecl = type { ptr, ptr, i8 }
%struct.EnumDecl = type { ptr, ptr, ptr }
%struct.EnumConstantDecl = type { ptr, i32, i32 }

@.str.6 = private unnamed_addr constant [1 x i8] zeroinitializer, align 1
@.str.10 = private unnamed_addr constant [7 x i8] c".fault\00", align 1
@type_usz = external global ptr, align 8
@.str.11 = private unnamed_addr constant [7 x i8] c"tempid\00", align 1

; Function Attrs: nounwind uwtable
define internal ptr @llvm_generate_temp_introspection_global(ptr noundef %0, ptr noundef %1) #0 {
  %3 = alloca ptr, align 8
  %4 = alloca ptr, align 8
  %5 = alloca ptr, align 8
  store ptr %0, ptr %3, align 8
  store ptr %1, ptr %4, align 8
  %6 = load ptr, ptr %3, align 8
  %7 = getelementptr inbounds %struct.GenContext_, ptr %6, i32 0, i32 1
  %8 = load ptr, ptr %7, align 8
  %9 = load ptr, ptr %3, align 8
  %10 = getelementptr inbounds %struct.GenContext_, ptr %9, i32 0, i32 22
  %11 = load ptr, ptr %10, align 8
  %12 = call ptr @LLVMAddGlobal(ptr noundef %8, ptr noundef %11, ptr noundef @.str.11)
  store ptr %12, ptr %5, align 8
  %13 = load ptr, ptr %3, align 8
  %14 = getelementptr inbounds %struct.GenContext_, ptr %13, i32 0, i32 8
  %15 = load ptr, ptr %14, align 8
  %16 = load ptr, ptr %5, align 8
  %17 = load ptr, ptr %3, align 8
  %18 = getelementptr inbounds %struct.GenContext_, ptr %17, i32 0, i32 25
  %19 = load ptr, ptr %18, align 8
  %20 = call ptr @LLVMBuildPtrToInt(ptr noundef %15, ptr noundef %16, ptr noundef %19, ptr noundef @.str.6)
  %21 = load ptr, ptr %4, align 8
  %22 = getelementptr inbounds %struct.Type_, ptr %21, i32 0, i32 5
  store ptr %20, ptr %22, align 8
  %23 = load ptr, ptr %5, align 8
  ret ptr %23
}

; Function Attrs: nounwind uwtable
define internal ptr @llvm_get_introspection_for_fault(ptr noundef %0, ptr noundef %1) #0 {
  %3 = alloca ptr, align 8
  %4 = alloca i32, align 4
  %5 = alloca ptr, align 8
  %6 = alloca ptr, align 8
  %7 = alloca i64, align 8
  %8 = alloca ptr, align 8
  %9 = alloca ptr, align 8
  %10 = alloca ptr, align 8
  %11 = alloca i32, align 4
  %12 = alloca i32, align 4
  %13 = alloca ptr, align 8
  %14 = alloca ptr, align 8
  %15 = alloca ptr, align 8
  %16 = alloca ptr, align 8
  %17 = alloca ptr, align 8
  %18 = alloca ptr, align 8
  %19 = alloca i32, align 4
  %20 = alloca ptr, align 8
  %21 = alloca i32, align 4
  %22 = alloca ptr, align 8
  %23 = alloca ptr, align 8
  %24 = alloca [3 x ptr], align 16
  %25 = alloca ptr, align 8
  %26 = alloca i32, align 4
  store ptr %0, ptr %15, align 8
  store ptr %1, ptr %16, align 8
  %27 = load ptr, ptr %16, align 8
  %28 = getelementptr inbounds %struct.Type_, ptr %27, i32 0, i32 7
  %29 = load ptr, ptr %28, align 8
  store ptr %29, ptr %17, align 8
  %30 = load ptr, ptr %17, align 8
  %31 = getelementptr inbounds %struct.Decl_, ptr %30, i32 0, i32 11
  %32 = getelementptr inbounds %struct.anon.2, ptr %31, i32 0, i32 2
  %33 = getelementptr inbounds %struct.EnumDecl, ptr %32, i32 0, i32 0
  %34 = load ptr, ptr %33, align 8
  store ptr %34, ptr %18, align 8
  %35 = load ptr, ptr %18, align 8
  store ptr %35, ptr %13, align 8
  %36 = load ptr, ptr %13, align 8
  %37 = icmp ne ptr %36, null
  br i1 %37, label %39, label %38

38:                                               ; preds = %2
  store i32 0, ptr %12, align 4
  br label %44

39:                                               ; preds = %2
  %40 = load ptr, ptr %13, align 8
  store ptr %40, ptr %14, align 8
  %41 = load ptr, ptr %14, align 8
  %42 = getelementptr inbounds %struct.VHeader_, ptr %41, i64 -1
  %43 = load i32, ptr %42, align 4
  store i32 %43, ptr %12, align 4
  br label %44

44:                                               ; preds = %39, %38
  %45 = load i32, ptr %12, align 4
  store i32 %45, ptr %19, align 4
  %46 = load ptr, ptr %15, align 8
  %47 = load ptr, ptr %16, align 8
  %48 = call ptr @llvm_generate_temp_introspection_global(ptr noundef %46, ptr noundef %47)
  store ptr %48, ptr %20, align 8
  store i32 0, ptr %21, align 4
  br label %49

49:                                               ; preds = %152, %44
  %50 = load i32, ptr %21, align 4
  %51 = load i32, ptr %19, align 4
  %52 = icmp ult i32 %50, %51
  br i1 %52, label %53, label %155

53:                                               ; preds = %49
  call void @scratch_buffer_clear()
  %54 = load ptr, ptr %17, align 8
  store ptr %54, ptr %8, align 8
  %55 = load ptr, ptr %8, align 8
  %56 = getelementptr inbounds %struct.Decl_, ptr %55, i32 0, i32 1
  %57 = load ptr, ptr %56, align 8
  call void @scratch_buffer_append(ptr noundef %57)
  call void @scratch_buffer_append_char(i8 noundef signext 36)
  %58 = load ptr, ptr %18, align 8
  %59 = load i32, ptr %21, align 4
  %60 = zext i32 %59 to i64
  %61 = getelementptr inbounds ptr, ptr %58, i64 %60
  %62 = load ptr, ptr %61, align 8
  store ptr %62, ptr %22, align 8
  %63 = load ptr, ptr %22, align 8
  %64 = getelementptr inbounds %struct.Decl_, ptr %63, i32 0, i32 0
  %65 = load ptr, ptr %64, align 8
  call void @scratch_buffer_append(ptr noundef %65)
  %66 = load ptr, ptr %15, align 8
  %67 = getelementptr inbounds %struct.GenContext_, ptr %66, i32 0, i32 1
  %68 = load ptr, ptr %67, align 8
  %69 = load ptr, ptr %15, align 8
  %70 = getelementptr inbounds %struct.GenContext_, ptr %69, i32 0, i32 23
  %71 = load ptr, ptr %70, align 8
  %72 = call ptr @scratch_buffer_to_string()
  %73 = call ptr @LLVMAddGlobal(ptr noundef %68, ptr noundef %71, ptr noundef %72)
  store ptr %73, ptr %23, align 8
  %74 = load ptr, ptr %23, align 8
  %75 = load ptr, ptr %15, align 8
  %76 = getelementptr inbounds %struct.GenContext_, ptr %75, i32 0, i32 4
  %77 = load ptr, ptr %76, align 8
  %78 = load ptr, ptr %23, align 8
  %79 = call i32 @LLVMPreferredAlignmentOfGlobal(ptr noundef %77, ptr noundef %78)
  call void @LLVMSetAlignment(ptr noundef %74, i32 noundef %79)
  %80 = load ptr, ptr %23, align 8
  call void @LLVMSetGlobalConstant(ptr noundef %80, i32 noundef 1)
  %81 = getelementptr inbounds [3 x ptr], ptr %24, i64 0, i64 0
  %82 = load ptr, ptr %15, align 8
  %83 = getelementptr inbounds %struct.GenContext_, ptr %82, i32 0, i32 8
  %84 = load ptr, ptr %83, align 8
  %85 = load ptr, ptr %20, align 8
  %86 = load ptr, ptr %15, align 8
  %87 = getelementptr inbounds %struct.GenContext_, ptr %86, i32 0, i32 25
  %88 = load ptr, ptr %87, align 8
  %89 = call ptr @LLVMBuildPtrToInt(ptr noundef %84, ptr noundef %85, ptr noundef %88, ptr noundef @.str.6)
  store ptr %89, ptr %81, align 8
  %90 = getelementptr inbounds ptr, ptr %81, i64 1
  %91 = load ptr, ptr %15, align 8
  %92 = load ptr, ptr %22, align 8
  %93 = getelementptr inbounds %struct.Decl_, ptr %92, i32 0, i32 0
  %94 = load ptr, ptr %93, align 8
  %95 = call ptr @llvm_emit_string_const(ptr noundef %91, ptr noundef %94, ptr noundef @.str.10)
  store ptr %95, ptr %90, align 8
  %96 = getelementptr inbounds ptr, ptr %90, i64 1
  %97 = load ptr, ptr %15, align 8
  %98 = load ptr, ptr @type_usz, align 8
  %99 = load ptr, ptr %22, align 8
  %100 = getelementptr inbounds %struct.Decl_, ptr %99, i32 0, i32 11
  %101 = getelementptr inbounds %struct.EnumConstantDecl, ptr %100, i32 0, i32 1
  %102 = load i32, ptr %101, align 8
  %103 = add i32 %102, 1
  %104 = zext i32 %103 to i64
  store ptr %97, ptr %5, align 8
  store ptr %98, ptr %6, align 8
  store i64 %104, ptr %7, align 8
  %105 = load ptr, ptr %6, align 8
  %106 = call ptr @type_lowering(ptr noundef %105)
  store ptr %106, ptr %6, align 8
  %107 = load ptr, ptr %5, align 8
  %108 = load ptr, ptr %6, align 8
  %109 = call ptr @llvm_get_type(ptr noundef %107, ptr noundef %108)
  %110 = load i64, ptr %7, align 8
  %111 = load ptr, ptr %6, align 8
  store ptr %111, ptr %3, align 8
  %112 = load ptr, ptr %3, align 8
  %113 = load i32, ptr %112, align 8
  store i32 %113, ptr %4, align 4
  %114 = load i32, ptr %4, align 4
  %115 = icmp eq i32 %114, 31
  br i1 %115, label %116, label %121

116:                                              ; preds = %53
  %117 = load ptr, ptr %3, align 8
  %118 = getelementptr inbounds %struct.Type_, ptr %117, i32 0, i32 1
  %119 = load ptr, ptr %118, align 8
  %120 = load i32, ptr %119, align 8
  store i32 %120, ptr %4, align 4
  br label %121

121:                                              ; preds = %116, %53
  %122 = load i32, ptr %4, align 4
  %123 = icmp uge i32 %122, 3
  br i1 %123, label %124, label %127

124:                                              ; preds = %121
  %125 = load i32, ptr %4, align 4
  %126 = icmp ule i32 %125, 7
  br label %127

127:                                              ; preds = %124, %121
  %128 = phi i1 [ false, %121 ], [ %126, %124 ]
  %129 = zext i1 %128 to i32
  %130 = call ptr @LLVMConstInt(ptr noundef %109, i64 noundef %110, i32 noundef %129) #5
  store ptr %130, ptr %96, align 8
  %131 = load ptr, ptr %23, align 8
  %132 = load ptr, ptr %15, align 8
  %133 = getelementptr inbounds %struct.GenContext_, ptr %132, i32 0, i32 23
  %134 = load ptr, ptr %133, align 8
  %135 = getelementptr inbounds [3 x ptr], ptr %24, i64 0, i64 0
  store ptr %134, ptr %9, align 8
  store ptr %135, ptr %10, align 8
  store i32 3, ptr %11, align 4
  %136 = load ptr, ptr %9, align 8
  %137 = load ptr, ptr %10, align 8
  %138 = load i32, ptr %11, align 4
  %139 = call ptr @LLVMConstNamedStruct(ptr noundef %136, ptr noundef %137, i32 noundef %138) #5
  call void @LLVMSetInitializer(ptr noundef %131, ptr noundef %139)
  %140 = load ptr, ptr %15, align 8
  %141 = load ptr, ptr %23, align 8
  call void @llvm_set_linkonce(ptr noundef %140, ptr noundef %141)
  %142 = load ptr, ptr %15, align 8
  %143 = getelementptr inbounds %struct.GenContext_, ptr %142, i32 0, i32 8
  %144 = load ptr, ptr %143, align 8
  %145 = load ptr, ptr %23, align 8
  %146 = load ptr, ptr %15, align 8
  %147 = getelementptr inbounds %struct.GenContext_, ptr %146, i32 0, i32 25
  %148 = load ptr, ptr %147, align 8
  %149 = call ptr @LLVMBuildPtrToInt(ptr noundef %144, ptr noundef %145, ptr noundef %148, ptr noundef @.str.6)
  %150 = load ptr, ptr %22, align 8
  %151 = getelementptr inbounds %struct.Decl_, ptr %150, i32 0, i32 4
  store ptr %149, ptr %151, align 8
  br label %152

152:                                              ; preds = %127
  %153 = load i32, ptr %21, align 4
  %154 = add i32 %153, 1
  store i32 %154, ptr %21, align 4
  br label %49, !llvm.loop !17

155:                                              ; preds = %49
  %156 = load i32, ptr %19, align 4
  %157 = icmp ne i32 %156, 0
  br i1 %157, label %158, label %163

158:                                              ; preds = %155
  %159 = load i32, ptr %19, align 4
  %160 = zext i32 %159 to i64
  %161 = mul i64 8, %160
  %162 = call ptr @calloc_arena(i64 noundef %161)
  br label %164

163:                                              ; preds = %155
  br label %164

164:                                              ; preds = %163, %158
  %165 = phi ptr [ %162, %158 ], [ null, %163 ]
  store ptr %165, ptr %25, align 8
  store i32 0, ptr %26, align 4
  br label %166

166:                                              ; preds = %182, %164
  %167 = load i32, ptr %26, align 4
  %168 = load i32, ptr %19, align 4
  %169 = icmp ult i32 %167, %168
  br i1 %169, label %170, label %185

170:                                              ; preds = %166
  %171 = load ptr, ptr %18, align 8
  %172 = load i32, ptr %26, align 4
  %173 = zext i32 %172 to i64
  %174 = getelementptr inbounds ptr, ptr %171, i64 %173
  %175 = load ptr, ptr %174, align 8
  %176 = getelementptr inbounds %struct.Decl_, ptr %175, i32 0, i32 4
  %177 = load ptr, ptr %176, align 8
  %178 = load ptr, ptr %25, align 8
  %179 = load i32, ptr %26, align 4
  %180 = zext i32 %179 to i64
  %181 = getelementptr inbounds ptr, ptr %178, i64 %180
  store ptr %177, ptr %181, align 8
  br label %182

182:                                              ; preds = %170
  %183 = load i32, ptr %26, align 4
  %184 = add i32 %183, 1
  store i32 %184, ptr %26, align 4
  br label %166, !llvm.loop !18

185:                                              ; preds = %166
  %186 = load ptr, ptr %15, align 8
  %187 = load ptr, ptr %20, align 8
  %188 = load ptr, ptr %16, align 8
  %189 = load i32, ptr %19, align 4
  %190 = zext i32 %189 to i64
  %191 = call ptr @llvm_generate_introspection_global(ptr noundef %186, ptr noundef %187, ptr noundef %188, i32 noundef 9, ptr noundef null, i64 noundef %190, ptr noundef null, i1 noundef zeroext false)
  ret ptr %191
}