; Function Attrs: nounwind uwtable
define internal fastcc ptr @llvm_get_introspection_for_fault(ptr noundef %0, ptr noundef %1) unnamed_addr #0 {
  %3 = alloca [3 x ptr], align 16
  %4 = getelementptr inbounds i8, ptr %1, i64 56
  %5 = load ptr, ptr %4, align 8
  %6 = getelementptr inbounds i8, ptr %5, i64 96
  %7 = load ptr, ptr %6, align 8
  %.not = icmp eq ptr %7, null
  br i1 %.not, label %11, label %8

8:                                                ; preds = %2
  %9 = getelementptr inbounds i8, ptr %7, i64 -8
  %10 = load i32, ptr %9, align 4
  br label %11

11:                                               ; preds = %2, %8
  %.064 = phi i32 [ %10, %8 ], [ 0, %2 ]
  %12 = getelementptr inbounds i8, ptr %0, i64 8
  %13 = load ptr, ptr %12, align 8
  %14 = getelementptr inbounds i8, ptr %0, i64 176
  %15 = load ptr, ptr %14, align 8
  %16 = tail call ptr @LLVMAddGlobal(ptr noundef %13, ptr noundef %15, ptr noundef nonnull @.str.11) #6
  %17 = getelementptr inbounds i8, ptr %0, i64 64
  %18 = load ptr, ptr %17, align 8
  %19 = getelementptr inbounds i8, ptr %0, i64 200
  %20 = load ptr, ptr %19, align 8
  %21 = tail call ptr @LLVMBuildPtrToInt(ptr noundef %18, ptr noundef %16, ptr noundef %20, ptr noundef nonnull @.str.6) #6
  %22 = getelementptr inbounds i8, ptr %1, i64 40
  store ptr %21, ptr %22, align 8
  %.not74 = icmp eq i32 %.064, 0
  br i1 %.not74, label %._crit_edge73, label %.lr.ph

.lr.ph:                                           ; preds = %11
  %23 = getelementptr inbounds i8, ptr %5, i64 8
  %24 = getelementptr inbounds i8, ptr %0, i64 184
  %25 = getelementptr inbounds i8, ptr %0, i64 32
  %26 = getelementptr inbounds i8, ptr %3, i64 8
  %27 = getelementptr inbounds i8, ptr %3, i64 16
  %wide.trip.count = zext i32 %.064 to i64
  br label %28

28:                                               ; preds = %.lr.ph, %57
  %indvars.iv = phi i64 [ 0, %.lr.ph ], [ %indvars.iv.next, %57 ]
  call void @scratch_buffer_clear() #6
  %29 = load ptr, ptr %23, align 8
  call void @scratch_buffer_append(ptr noundef %29) #6
  call void @scratch_buffer_append_char(i8 noundef signext 36) #6
  %30 = getelementptr inbounds ptr, ptr %7, i64 %indvars.iv
  %31 = load ptr, ptr %30, align 8
  %32 = load ptr, ptr %31, align 8
  call void @scratch_buffer_append(ptr noundef %32) #6
  %33 = load ptr, ptr %12, align 8
  %34 = load ptr, ptr %24, align 8
  %35 = call ptr @scratch_buffer_to_string() #6
  %36 = call ptr @LLVMAddGlobal(ptr noundef %33, ptr noundef %34, ptr noundef %35) #6
  %37 = load ptr, ptr %25, align 8
  %38 = call i32 @LLVMPreferredAlignmentOfGlobal(ptr noundef %37, ptr noundef %36) #6
  call void @LLVMSetAlignment(ptr noundef %36, i32 noundef %38) #6
  call void @LLVMSetGlobalConstant(ptr noundef %36, i32 noundef 1) #6
  %39 = load ptr, ptr %17, align 8
  %40 = load ptr, ptr %19, align 8
  %41 = call ptr @LLVMBuildPtrToInt(ptr noundef %39, ptr noundef %16, ptr noundef %40, ptr noundef nonnull @.str.6) #6
  store ptr %41, ptr %3, align 16
  %42 = load ptr, ptr %31, align 8
  %43 = call ptr @llvm_emit_string_const(ptr noundef nonnull %0, ptr noundef %42, ptr noundef nonnull @.str.10) #6
  store ptr %43, ptr %26, align 8
  %44 = load ptr, ptr @type_usz, align 8
  %45 = getelementptr inbounds i8, ptr %31, i64 88
  %46 = load i32, ptr %45, align 8
  %47 = add i32 %46, 1
  %48 = zext i32 %47 to i64
  %49 = call fastcc ptr @type_lowering(ptr noundef %44)
  %50 = call ptr @llvm_get_type(ptr noundef nonnull %0, ptr noundef %49)
  %51 = load i32, ptr %49, align 8
  %52 = icmp eq i32 %51, 31
  br i1 %52, label %53, label %57

53:                                               ; preds = %28
  %54 = getelementptr inbounds i8, ptr %49, i64 8
  %55 = load ptr, ptr %54, align 8
  %56 = load i32, ptr %55, align 8
  br label %57

57:                                               ; preds = %53, %28
  %.063 = phi i32 [ %56, %53 ], [ %51, %28 ]
  %58 = add i32 %.063, -3
  %59 = icmp ult i32 %58, 5
  %60 = zext i1 %59 to i32
  %61 = call ptr @LLVMConstInt(ptr noundef %50, i64 noundef %48, i32 noundef %60) #6
  store ptr %61, ptr %27, align 16
  %62 = load ptr, ptr %24, align 8
  %63 = call ptr @LLVMConstNamedStruct(ptr noundef %62, ptr noundef nonnull %3, i32 noundef 3) #6
  call void @LLVMSetInitializer(ptr noundef %36, ptr noundef %63) #6
  call void @llvm_set_linkonce(ptr noundef nonnull %0, ptr noundef %36) #6
  %64 = load ptr, ptr %17, align 8
  %65 = load ptr, ptr %19, align 8
  %66 = call ptr @LLVMBuildPtrToInt(ptr noundef %64, ptr noundef %36, ptr noundef %65, ptr noundef nonnull @.str.6) #6
  %67 = getelementptr inbounds i8, ptr %31, i64 32
  store ptr %66, ptr %67, align 8
  %indvars.iv.next = add nuw nsw i64 %indvars.iv, 1
  %exitcond.not = icmp eq i64 %indvars.iv.next, %wide.trip.count
  br i1 %exitcond.not, label %._crit_edge, label %28, !llvm.loop !18

._crit_edge:                                      ; preds = %57
  br i1 %.not74, label %._crit_edge73, label %.lr.ph72.preheader

.lr.ph72.preheader:                               ; preds = %._crit_edge
  %68 = zext i32 %.064 to i64
  %69 = shl nuw nsw i64 %68, 3
  %70 = call ptr @calloc_arena(i64 noundef %69) #6
  %wide.trip.count80 = zext i32 %.064 to i64
  br label %.lr.ph72

.lr.ph72:                                         ; preds = %.lr.ph72.preheader, %.lr.ph72
  %indvars.iv77 = phi i64 [ 0, %.lr.ph72.preheader ], [ %indvars.iv.next78, %.lr.ph72 ]
  %71 = getelementptr inbounds ptr, ptr %7, i64 %indvars.iv77
  %72 = load ptr, ptr %71, align 8
  %73 = getelementptr inbounds i8, ptr %72, i64 32
  %74 = load ptr, ptr %73, align 8
  %75 = getelementptr inbounds ptr, ptr %70, i64 %indvars.iv77
  store ptr %74, ptr %75, align 8
  %indvars.iv.next78 = add nuw nsw i64 %indvars.iv77, 1
  %exitcond81.not = icmp eq i64 %indvars.iv.next78, %wide.trip.count80
  br i1 %exitcond81.not, label %._crit_edge73, label %.lr.ph72, !llvm.loop !19

._crit_edge73:                                    ; preds = %.lr.ph72, %._crit_edge, %11
  %.pre-phi = phi i64 [ 0, %11 ], [ 0, %._crit_edge ], [ %wide.trip.count80, %.lr.ph72 ]
  %76 = call fastcc ptr @llvm_generate_introspection_global(ptr noundef %0, ptr noundef %16, ptr noundef %1, i32 noundef 9, ptr noundef null, i64 noundef %.pre-phi, ptr noundef null, i1 noundef zeroext false)
  ret ptr %76
}